target datalayout = "e-m:e-p270:32:32-p271:32:32-p272:64:64-i64:64-i128:128-f80:128-n8:16:32:64-S128"
target triple = "x86_64-pc-linux-gnu"

@_ZL14invariantChars = internal constant [4 x i32] [i32 -1025, i32 -27, i32 -2013265922, i32 -2013265922], align 16
@.str = private unnamed_addr constant [79 x i8] c"uprv_ebcdicFromAscii() string[%d] contains a variant character in position %d\0A\00", align 1

; Function Attrs: inlinehint mustprogress nounwind uwtable
define internal noundef signext i8 @_ZL9U_FAILURE10UErrorCode(i32 noundef %0) #3 {
  %2 = alloca i32, align 4
  store i32 %0, ptr %2, align 4, !tbaa !23
  %3 = load i32, ptr %2, align 4, !tbaa !23
  %4 = icmp sgt i32 %3, 0
  %5 = zext i1 %4 to i8
  ret i8 %5
}

; Function Attrs: mustprogress uwtable
define i32 @uprv_ebcdicFromAscii_77(ptr noundef %0, ptr noundef %1, i32 noundef %2, ptr noundef %3, ptr noundef %4) #2 {
  %6 = alloca i32, align 4
  %7 = alloca ptr, align 8
  %8 = alloca ptr, align 8
  %9 = alloca i32, align 4
  %10 = alloca ptr, align 8
  %11 = alloca ptr, align 8
  %12 = alloca ptr, align 8
  %13 = alloca ptr, align 8
  %14 = alloca i8, align 1
  %15 = alloca i32, align 4
  %16 = alloca i32, align 4
  store ptr %0, ptr %7, align 8, !tbaa !20
  store ptr %1, ptr %8, align 8, !tbaa !22
  store i32 %2, ptr %9, align 4, !tbaa !10
  store ptr %3, ptr %10, align 8, !tbaa !22
  store ptr %4, ptr %11, align 8, !tbaa !22
  call void @llvm.lifetime.start.p0(i64 8, ptr %12) #7
  call void @llvm.lifetime.start.p0(i64 8, ptr %13) #7
  call void @llvm.lifetime.start.p0(i64 1, ptr %14) #7
  call void @llvm.lifetime.start.p0(i64 4, ptr %15) #7
  %17 = load ptr, ptr %11, align 8, !tbaa !22
  %18 = icmp eq ptr %17, null
  br i1 %18, label %24, label %19

19:                                               ; preds = %5
  %20 = load ptr, ptr %11, align 8, !tbaa !22
  %21 = load i32, ptr %20, align 4, !tbaa !23
  %22 = call noundef signext i8 @_ZL9U_FAILURE10UErrorCode(i32 noundef %21)
  %23 = icmp ne i8 %22, 0
  br i1 %23, label %24, label %25

24:                                               ; preds = %19, %5
  store i32 0, ptr %6, align 4
  store i32 1, ptr %16, align 4
  br label %87

25:                                               ; preds = %19
  %26 = load ptr, ptr %7, align 8, !tbaa !20
  %27 = icmp eq ptr %26, null
  br i1 %27, label %40, label %28

28:                                               ; preds = %25
  %29 = load ptr, ptr %8, align 8, !tbaa !22
  %30 = icmp eq ptr %29, null
  br i1 %30, label %40, label %31

31:                                               ; preds = %28
  %32 = load i32, ptr %9, align 4, !tbaa !10
  %33 = icmp slt i32 %32, 0
  br i1 %33, label %40, label %34

34:                                               ; preds = %31
  %35 = load i32, ptr %9, align 4, !tbaa !10
  %36 = icmp sgt i32 %35, 0
  br i1 %36, label %37, label %42

37:                                               ; preds = %34
  %38 = load ptr, ptr %10, align 8, !tbaa !22
  %39 = icmp eq ptr %38, null
  br i1 %39, label %40, label %42

40:                                               ; preds = %37, %31, %28, %25
  %41 = load ptr, ptr %11, align 8, !tbaa !22
  store i32 1, ptr %41, align 4, !tbaa !23
  store i32 0, ptr %6, align 4
  store i32 1, ptr %16, align 4
  br label %87

42:                                               ; preds = %37, %34
  %43 = load ptr, ptr %8, align 8, !tbaa !22
  store ptr %43, ptr %12, align 8, !tbaa !3
  %44 = load ptr, ptr %10, align 8, !tbaa !22
  store ptr %44, ptr %13, align 8, !tbaa !3
  %45 = load i32, ptr %9, align 4, !tbaa !10
  store i32 %45, ptr %15, align 4, !tbaa !10
  br label %46

46:                                               ; preds = %76, %42
  %47 = load i32, ptr %15, align 4, !tbaa !10
  %48 = icmp sgt i32 %47, 0
  br i1 %48, label %49, label %85

49:                                               ; preds = %46
  %50 = load ptr, ptr %12, align 8, !tbaa !3
  %51 = getelementptr inbounds nuw i8, ptr %50, i32 1
  store ptr %51, ptr %12, align 8, !tbaa !3
  %52 = load i8, ptr %50, align 1, !tbaa !12
  store i8 %52, ptr %14, align 1, !tbaa !12
  %53 = load i8, ptr %14, align 1, !tbaa !12
  %54 = zext i8 %53 to i32
  %55 = icmp sle i32 %54, 127
  br i1 %55, label %56, label %69

56:                                               ; preds = %49
  %57 = load i8, ptr %14, align 1, !tbaa !12
  %58 = zext i8 %57 to i32
  %59 = ashr i32 %58, 5
  %60 = sext i32 %59 to i64
  %61 = getelementptr inbounds [4 x i32], ptr @_ZL14invariantChars, i64 0, i64 %60
  %62 = load i32, ptr %61, align 4, !tbaa !10
  %63 = load i8, ptr %14, align 1, !tbaa !12
  %64 = zext i8 %63 to i32
  %65 = and i32 %64, 31
  %66 = shl i32 1, %65
  %67 = and i32 %62, %66
  %68 = icmp ne i32 %67, 0
  br i1 %68, label %76, label %69

69:                                               ; preds = %56, %49
  %70 = load ptr, ptr %7, align 8, !tbaa !20
  %71 = load i32, ptr %9, align 4, !tbaa !10
  %72 = load i32, ptr %9, align 4, !tbaa !10
  %73 = load i32, ptr %15, align 4, !tbaa !10
  %74 = sub nsw i32 %72, %73
  call void (ptr, ptr, ...) @udata_printError_77(ptr noundef %70, ptr noundef @.str, i32 noundef %71, i32 noundef %74)
  %75 = load ptr, ptr %11, align 8, !tbaa !22
  store i32 10, ptr %75, align 4, !tbaa !23
  store i32 0, ptr %6, align 4
  store i32 1, ptr %16, align 4
  br label %87

76:                                               ; preds = %56
  %77 = load i8, ptr %14, align 1, !tbaa !12
  %78 = zext i8 %77 to i64
  %79 = getelementptr inbounds nuw [256 x i8], ptr @_ZL15ebcdicFromAscii, i64 0, i64 %78
  %80 = load i8, ptr %79, align 1, !tbaa !12
  %81 = load ptr, ptr %13, align 8, !tbaa !3
  %82 = getelementptr inbounds nuw i8, ptr %81, i32 1
  store ptr %82, ptr %13, align 8, !tbaa !3
  store i8 %80, ptr %81, align 1, !tbaa !12
  %83 = load i32, ptr %15, align 4, !tbaa !10
  %84 = add nsw i32 %83, -1
  store i32 %84, ptr %15, align 4, !tbaa !10
  br label %46, !llvm.loop !25

85:                                               ; preds = %46
  %86 = load i32, ptr %9, align 4, !tbaa !10
  store i32 %86, ptr %6, align 4
  store i32 1, ptr %16, align 4
  br label %87

87:                                               ; preds = %85, %69, %40, %24
  call void @llvm.lifetime.end.p0(i64 4, ptr %15) #7
  call void @llvm.lifetime.end.p0(i64 1, ptr %14) #7
  call void @llvm.lifetime.end.p0(i64 8, ptr %13) #7
  call void @llvm.lifetime.end.p0(i64 8, ptr %12) #7
  %88 = load i32, ptr %6, align 4
  ret i32 %88
}