; Function Attrs: mustprogress uwtable
define range(i32 0, -2147483648) i32 @uprv_ebcdicFromAscii_77(ptr noundef %0, ptr noundef readonly %1, i32 noundef %2, ptr noundef writeonly %3, ptr noundef %4) local_unnamed_addr #2 {
  %6 = icmp eq ptr %4, null
  br i1 %6, label %.loopexit, label %7

7:                                                ; preds = %5
  %8 = load i32, ptr %4, align 4, !tbaa !15
  %9 = icmp slt i32 %8, 1
  br i1 %9, label %10, label %.loopexit

10:                                               ; preds = %7
  %11 = icmp eq ptr %0, null
  %12 = icmp eq ptr %1, null
  %or.cond = or i1 %11, %12
  %13 = icmp slt i32 %2, 0
  %or.cond3 = or i1 %or.cond, %13
  br i1 %or.cond3, label %.loopexit.sink.split, label %14

14:                                               ; preds = %10
  %15 = icmp ne i32 %2, 0
  %16 = icmp eq ptr %3, null
  %or.cond5 = and i1 %15, %16
  br i1 %or.cond5, label %.loopexit.sink.split, label %.preheader

.preheader:                                       ; preds = %14
  %.not = icmp eq i32 %2, 0
  br i1 %.not, label %.loopexit, label %.lr.ph

.lr.ph:                                           ; preds = %.preheader, %31
  %.042 = phi i32 [ %36, %31 ], [ %2, %.preheader ]
  %.03141 = phi ptr [ %35, %31 ], [ %3, %.preheader ]
  %.03240 = phi ptr [ %17, %31 ], [ %1, %.preheader ]
  %17 = getelementptr inbounds nuw i8, ptr %.03240, i64 1
  %18 = load i8, ptr %.03240, align 1, !tbaa !3
  %19 = icmp sgt i8 %18, -1
  br i1 %19, label %20, label %29

20:                                               ; preds = %.lr.ph
  %21 = zext nneg i8 %18 to i32
  %22 = lshr i32 %21, 5
  %23 = zext nneg i32 %22 to i64
  %24 = getelementptr inbounds nuw [4 x i32], ptr @_ZL14invariantChars, i64 0, i64 %23
  %25 = load i32, ptr %24, align 4, !tbaa !10
  %26 = and i32 %21, 31
  %27 = shl nuw i32 1, %26
  %28 = and i32 %25, %27
  %.not38 = icmp eq i32 %28, 0
  br i1 %.not38, label %29, label %31

29:                                               ; preds = %20, %.lr.ph
  %30 = sub nsw i32 %2, %.042
  tail call void (ptr, ptr, ...) @udata_printError_77(ptr noundef %0, ptr noundef nonnull @.str, i32 noundef %2, i32 noundef %30)
  br label %.loopexit.sink.split

31:                                               ; preds = %20
  %32 = zext nneg i8 %18 to i64
  %33 = getelementptr inbounds nuw [256 x i8], ptr @_ZL15ebcdicFromAscii, i64 0, i64 %32
  %34 = load i8, ptr %33, align 1, !tbaa !3
  %35 = getelementptr inbounds nuw i8, ptr %.03141, i64 1
  store i8 %34, ptr %.03141, align 1, !tbaa !3
  %36 = add nsw i32 %.042, -1
  %37 = icmp sgt i32 %.042, 1
  br i1 %37, label %.lr.ph, label %.loopexit, !llvm.loop !17

.loopexit.sink.split:                             ; preds = %10, %14, %29
  %.sink = phi i32 [ 10, %29 ], [ 1, %14 ], [ 1, %10 ]
  store i32 %.sink, ptr %4, align 4, !tbaa !15
  br label %.loopexit

.loopexit:                                        ; preds = %31, %.loopexit.sink.split, %.preheader, %5, %7
  %.030 = phi i32 [ 0, %7 ], [ 0, %5 ], [ 0, %.preheader ], [ 0, %.loopexit.sink.split ], [ %2, %31 ]
  ret i32 %.030
}